Certificate:
    Data:
        Version: 1 (0x0)
        Serial Number: 5 (0x5)
    Signature Algorithm: md5WithRSAEncryption
        Issuer: C=Sg, ST=sg, L=Singapore, O=SUTD, OU=ISTD, CN=Vu Dinh Quyen /emailAddress=dinhquyen_vu@mymail.sutd.edu.sg
        Validity
            Not Before: Apr 11 18:32:30 2015 GMT
            Not After : Apr 10 18:32:30 2016 GMT
        Subject: C=SG, ST=Singapore, L=Singapore, O=SUTD, OU=ISTD, CN=HADUCTIEN/emailAddress=ductien_ha@mymail.sutd.edu.sg
        Subject Public Key Info:
            Public Key Algorithm: rsaEncryption
                Public-Key: (1024 bit)
                Modulus:
                    00:f4:49:30:88:05:21:e8:05:b1:b1:f3:3c:f6:b9:
                    49:24:53:b0:fa:52:f5:50:f8:fb:64:7e:2e:4c:59:
                    b4:4e:b3:a5:c7:93:2a:7d:89:29:c9:38:97:7b:7e:
                    a5:ca:c8:94:bf:e6:aa:8d:71:9b:77:f7:53:a4:2e:
                    ba:1b:d9:18:6a:75:02:5f:ff:d5:90:30:4f:31:21:
                    19:e7:43:eb:17:44:1b:45:4c:74:bc:78:9f:47:19:
                    51:fd:c1:84:de:1f:11:0d:1b:29:8e:b4:83:53:83:
                    22:39:1e:5e:58:8d:3a:ca:89:4c:e1:b8:ef:7c:e3:
                    4c:1f:22:b1:c4:21:76:a9:8f
                Exponent: 65537 (0x10001)
    Signature Algorithm: md5WithRSAEncryption
         6b:4a:d6:91:2c:c3:1c:2d:df:0e:ab:88:83:cd:47:16:bc:72:
         08:d7:f9:9b:4e:c4:5e:db:47:98:18:aa:9a:b1:93:eb:1d:d7:
         ca:a3:a3:e7:2f:c0:46:3c:83:a7:56:c8:4c:28:eb:64:13:96:
         8f:83:45:35:87:4b:4e:a8:5e:65:74:22:bc:7e:cc:ff:39:04:
         cf:bf:6b:79:b9:fb:2d:5b:f0:82:7d:a5:bc:1e:55:de:cc:31:
         aa:4f:49:93:a7:ec:b0:ea:88:d7:a9:1d:e0:3a:f0:54:31:47:
         03:08:b6:a5:ca:06:19:6a:37:41:65:52:93:80:c5:0a:ef:63:
         9b:df
-----BEGIN CERTIFICATE-----
MIICmzCCAgQCAQUwDQYJKoZIhvcNAQEEBQAwgZUxCzAJBgNVBAYTAlNnMQswCQYD
VQQIDAJzZzESMBAGA1UEBwwJU2luZ2Fwb3JlMQ0wCwYDVQQKDARTVVREMQ0wCwYD
VQQLDARJU1REMRcwFQYDVQQDDA5WdSBEaW5oIFF1eWVuIDEuMCwGCSqGSIb3DQEJ
ARYfZGluaHF1eWVuX3Z1QG15bWFpbC5zdXRkLmVkdS5zZzAeFw0xNTA0MTExODMy
MzBaFw0xNjA0MTAxODMyMzBaMIGVMQswCQYDVQQGEwJTRzESMBAGA1UECAwJU2lu
Z2Fwb3JlMRIwEAYDVQQHDAlTaW5nYXBvcmUxDTALBgNVBAoMBFNVVEQxDTALBgNV
BAsMBElTVEQxEjAQBgNVBAMMCUhBRFVDVElFTjEsMCoGCSqGSIb3DQEJARYdZHVj
dGllbl9oYUBteW1haWwuc3V0ZC5lZHUuc2cwgZ8wDQYJKoZIhvcNAQEBBQADgY0A
MIGJAoGBAPRJMIgFIegFsbHzPPa5SSRTsPpS9VD4+2R+LkxZtE6zpceTKn2JKck4
l3t+pcrIlL/mqo1xm3f3U6QuuhvZGGp1Al//1ZAwTzEhGedD6xdEG0VMdLx4n0cZ
Uf3BhN4fEQ0bKY60g1ODIjkeXliNOsqJTOG473zjTB8iscQhdqmPAgMBAAEwDQYJ
KoZIhvcNAQEEBQADgYEAa0rWkSzDHC3fDquIg81HFrxyCNf5m07EXttHmBiqmrGT
6x3XyqOj5y/ARjyDp1bITCjrZBOWj4NFNYdLTqheZXQivH7M/zkEz79rebn7LVvw
gn2lvB5V3swxqk9Jk6fssOqI16kd4DrwVDFHAwi2pcoGGWo3QWVSk4DFCu9jm98=
-----END CERTIFICATE-----
